target datalayout = "e-m:e-p270:32:32-p271:32:32-p272:64:64-i64:64-i128:128-f80:128-n8:16:32:64-S128"
target triple = "x86_64-pc-linux-gnu"

%"class.cv::FileNode" = type { ptr, i64, i64 }
%"class.cv::Mat" = type { i32, i32, i32, i32, ptr, ptr, ptr, ptr, ptr, ptr, %"struct.cv::MatSize", %"struct.cv::MatStep" }
%"struct.cv::MatSize" = type { ptr }
%"struct.cv::MatStep" = type { ptr, [2 x i64] }
%"class.cv::ml::SVMSGDImpl" = type { %"class.cv::ml::SVMSGD", %"class.cv::Mat", float, %"struct.cv::ml::SVMSGDImpl::SVMSGDParams" }
%"class.cv::ml::SVMSGD" = type { %"class.cv::ml::StatModel" }
%"class.cv::ml::StatModel" = type { %"class.cv::Algorithm" }
%"class.cv::Algorithm" = type { ptr }
%"struct.cv::ml::SVMSGDImpl::SVMSGDParams" = type { float, float, float, %"class.cv::TermCriteria", i32, i32 }
%"class.cv::TermCriteria" = type { i32, i32, double }

@.str.11 = private unnamed_addr constant [8 x i8] c"weights\00", align 1
@.str.12 = private unnamed_addr constant [6 x i8] c"shift\00", align 1

; Function Attrs: inlinehint mustprogress uwtable
define internal void @_ZN2cvrsIfEEvRKNS_8FileNodeERT_(ptr noundef nonnull align 8 dereferenceable(24) %0, ptr noundef nonnull align 4 dereferenceable(4) %1) #6 {
  %3 = alloca ptr, align 8
  %4 = alloca ptr, align 8
  store ptr %0, ptr %3, align 8, !tbaa !117
  store ptr %1, ptr %4, align 8, !tbaa !16
  %5 = load ptr, ptr %3, align 8, !tbaa !117
  %6 = load ptr, ptr %4, align 8, !tbaa !16
  call void @_ZN2cv4readERKNS_8FileNodeERff(ptr noundef nonnull align 8 dereferenceable(24) %5, ptr noundef nonnull align 4 dereferenceable(4) %6, float noundef 0.000000e+00)
  ret void
}

; Function Attrs: inlinehint mustprogress uwtable
define internal void @_ZN2cvrsINS_3MatEEEvRKNS_8FileNodeERT_(ptr noundef nonnull align 8 dereferenceable(24) %0, ptr noundef nonnull align 8 dereferenceable(96) %1) #6 personality ptr @__gxx_personality_v0 {
  %3 = alloca ptr, align 8
  %4 = alloca ptr, align 8
  %5 = alloca %"class.cv::Mat", align 8
  %6 = alloca ptr, align 8
  %7 = alloca i32, align 4
  store ptr %0, ptr %3, align 8, !tbaa !117
  store ptr %1, ptr %4, align 8, !tbaa !14
  %8 = load ptr, ptr %3, align 8, !tbaa !117
  %9 = load ptr, ptr %4, align 8, !tbaa !14
  call void @llvm.lifetime.start.p0(i64 96, ptr %5) #3
  call void @_ZN2cv3MatC1Ev(ptr noundef nonnull align 8 dereferenceable(96) %5) #3
  invoke void @_ZN2cv4readERKNS_8FileNodeERNS_3MatERKS3_(ptr noundef nonnull align 8 dereferenceable(24) %8, ptr noundef nonnull align 8 dereferenceable(96) %9, ptr noundef nonnull align 8 dereferenceable(96) %5)
          to label %10 unwind label %11

10:                                               ; preds = %2
  call void @_ZN2cv3MatD1Ev(ptr noundef nonnull align 8 dereferenceable(96) %5) #3
  call void @llvm.lifetime.end.p0(i64 96, ptr %5) #3
  ret void

11:                                               ; preds = %2
  %12 = landingpad { ptr, i32 }
          cleanup
  %13 = extractvalue { ptr, i32 } %12, 0
  store ptr %13, ptr %6, align 8
  %14 = extractvalue { ptr, i32 } %12, 1
  store i32 %14, ptr %7, align 4
  call void @_ZN2cv3MatD1Ev(ptr noundef nonnull align 8 dereferenceable(96) %5) #3
  call void @llvm.lifetime.end.p0(i64 96, ptr %5) #3
  br label %15

15:                                               ; preds = %11
  %16 = load ptr, ptr %6, align 8
  %17 = load i32, ptr %7, align 4
  %18 = insertvalue { ptr, i32 } poison, ptr %16, 0
  %19 = insertvalue { ptr, i32 } %18, i32 %17, 1
  resume { ptr, i32 } %19
}

; Function Attrs: mustprogress uwtable
define hidden void @_ZN2cv2ml10SVMSGDImpl5clearEv(ptr noundef nonnull align 8 dereferenceable(152) %0) unnamed_addr #4 align 2 {
  %2 = alloca ptr, align 8
  store ptr %0, ptr %2, align 8, !tbaa !62
  %3 = load ptr, ptr %2, align 8
  %4 = getelementptr inbounds nuw %"class.cv::ml::SVMSGDImpl", ptr %3, i32 0, i32 1
  call void @_ZN2cv3Mat7releaseEv(ptr noundef nonnull align 8 dereferenceable(96) %4)
  %5 = getelementptr inbounds nuw %"class.cv::ml::SVMSGDImpl", ptr %3, i32 0, i32 2
  store float 0.000000e+00, ptr %5, align 8, !tbaa !81
  ret void
}

; Function Attrs: mustprogress uwtable
define hidden void @_ZN2cv2ml10SVMSGDImpl4readERKNS_8FileNodeE(ptr noundef nonnull align 8 dereferenceable(152) %0, ptr noundef nonnull align 8 dereferenceable(24) %1) unnamed_addr #4 align 2 {
  %3 = alloca ptr, align 8
  %4 = alloca ptr, align 8
  %5 = alloca %"class.cv::FileNode", align 8
  %6 = alloca %"class.cv::FileNode", align 8
  store ptr %0, ptr %3, align 8, !tbaa !62
  store ptr %1, ptr %4, align 8, !tbaa !117
  %7 = load ptr, ptr %3, align 8
  call void @_ZN2cv2ml10SVMSGDImpl5clearEv(ptr noundef nonnull align 8 dereferenceable(152) %7)
  %8 = load ptr, ptr %4, align 8, !tbaa !117
  call void @_ZN2cv2ml10SVMSGDImpl10readParamsERKNS_8FileNodeE(ptr noundef nonnull align 8 dereferenceable(152) %7, ptr noundef nonnull align 8 dereferenceable(24) %8)
  call void @llvm.lifetime.start.p0(i64 24, ptr %5) #3
  %9 = load ptr, ptr %4, align 8, !tbaa !117
  call void @_ZNK2cv8FileNodeixEPKc(ptr dead_on_unwind writable sret(%"class.cv::FileNode") align 8 %5, ptr noundef nonnull align 8 dereferenceable(24) %9, ptr noundef @.str.11)
  %10 = getelementptr inbounds nuw %"class.cv::ml::SVMSGDImpl", ptr %7, i32 0, i32 1
  call void @_ZN2cvrsINS_3MatEEEvRKNS_8FileNodeERT_(ptr noundef nonnull align 8 dereferenceable(24) %5, ptr noundef nonnull align 8 dereferenceable(96) %10)
  call void @llvm.lifetime.end.p0(i64 24, ptr %5) #3
  call void @llvm.lifetime.start.p0(i64 24, ptr %6) #3
  %11 = load ptr, ptr %4, align 8, !tbaa !117
  call void @_ZNK2cv8FileNodeixEPKc(ptr dead_on_unwind writable sret(%"class.cv::FileNode") align 8 %6, ptr noundef nonnull align 8 dereferenceable(24) %11, ptr noundef @.str.12)
  %12 = getelementptr inbounds nuw %"class.cv::ml::SVMSGDImpl", ptr %7, i32 0, i32 2
  call void @_ZN2cvrsIfEEvRKNS_8FileNodeERT_(ptr noundef nonnull align 8 dereferenceable(24) %6, ptr noundef nonnull align 4 dereferenceable(4) %12)
  call void @llvm.lifetime.end.p0(i64 24, ptr %6) #3
  ret void
}