; Function Attrs: mustprogress uwtable
define hidden void @_ZN2cv2ml10SVMSGDImpl4readERKNS_8FileNodeE(ptr noundef nonnull align 8 dereferenceable(152) %0, ptr noundef nonnull align 8 dereferenceable(24) %1) unnamed_addr #3 align 2 personality ptr @__gxx_personality_v0 {
  %3 = alloca %"class.cv::Mat", align 8
  %4 = alloca %"class.cv::FileNode", align 8
  %5 = alloca %"class.cv::FileNode", align 8
  %6 = getelementptr inbounds nuw i8, ptr %0, i64 8
  tail call void @_ZN2cv3Mat7releaseEv(ptr noundef nonnull align 8 dereferenceable(96) %6)
  %7 = getelementptr inbounds nuw i8, ptr %0, i64 104
  store float 0.000000e+00, ptr %7, align 8, !tbaa !116
  tail call void @_ZN2cv2ml10SVMSGDImpl10readParamsERKNS_8FileNodeE(ptr noundef nonnull align 8 dereferenceable(152) %0, ptr noundef nonnull align 8 dereferenceable(24) %1)
  call void @llvm.lifetime.start.p0(i64 24, ptr nonnull %4) #21
  call void @_ZNK2cv8FileNodeixEPKc(ptr dead_on_unwind nonnull writable sret(%"class.cv::FileNode") align 8 %4, ptr noundef nonnull align 8 dereferenceable(24) %1, ptr noundef nonnull @.str.11)
  call void @llvm.lifetime.start.p0(i64 96, ptr nonnull %3) #21
  call void @_ZN2cv3MatC1Ev(ptr noundef nonnull align 8 dereferenceable(96) %3) #21
  invoke void @_ZN2cv4readERKNS_8FileNodeERNS_3MatERKS3_(ptr noundef nonnull align 8 dereferenceable(24) %4, ptr noundef nonnull align 8 dereferenceable(96) %6, ptr noundef nonnull align 8 dereferenceable(96) %3)
          to label %_ZN2cvrsINS_3MatEEEvRKNS_8FileNodeERT_.exit unwind label %8

8:                                                ; preds = %2
  %9 = landingpad { ptr, i32 }
          cleanup
  call void @_ZN2cv3MatD1Ev(ptr noundef nonnull align 8 dereferenceable(96) %3) #21
  call void @llvm.lifetime.end.p0(i64 96, ptr nonnull %3) #21
  resume { ptr, i32 } %9

_ZN2cvrsINS_3MatEEEvRKNS_8FileNodeERT_.exit:      ; preds = %2
  call void @_ZN2cv3MatD1Ev(ptr noundef nonnull align 8 dereferenceable(96) %3) #21
  call void @llvm.lifetime.end.p0(i64 96, ptr nonnull %3) #21
  call void @llvm.lifetime.end.p0(i64 24, ptr nonnull %4) #21
  call void @llvm.lifetime.start.p0(i64 24, ptr nonnull %5) #21
  call void @_ZNK2cv8FileNodeixEPKc(ptr dead_on_unwind nonnull writable sret(%"class.cv::FileNode") align 8 %5, ptr noundef nonnull align 8 dereferenceable(24) %1, ptr noundef nonnull @.str.12)
  call void @_ZN2cv4readERKNS_8FileNodeERff(ptr noundef nonnull align 8 dereferenceable(24) %5, ptr noundef nonnull align 4 dereferenceable(4) %7, float noundef 0.000000e+00)
  call void @llvm.lifetime.end.p0(i64 24, ptr nonnull %5) #21
  ret void
}